; Function Attrs: mustprogress uwtable
define void @_ZN15FieldFilterEdit13focusOutEventEP11QFocusEvent(ptr noundef nonnull align 8 dereferenceable(216) %0, ptr noundef %1) unnamed_addr #2 align 2 {
  %3 = getelementptr inbounds i8, ptr %0, i64 56
  %4 = load i32, ptr %3, align 8
  %5 = icmp eq i32 %4, 4
  br i1 %5, label %6, label %7

6:                                                ; preds = %2
  tail call void @_ZN15FieldFilterEdit21popFilterSyntaxStatusEv(ptr noundef nonnull align 8 dereferenceable(216) %0)
  br label %7

7:                                                ; preds = %6, %2
  tail call void @_ZN14SyntaxLineEdit13focusOutEventEP11QFocusEvent(ptr noundef nonnull align 8 dereferenceable(185) %0, ptr noundef %1)
  ret void
}